; Function Attrs: mustprogress nounwind uwtable
define internal void @_ZNSt19_Sp_counted_deleterIPN8facebook5velox9functions12_GLOBAL__N_114ConcatFunctionESt14default_deleteIS4_ESaIvELN9__gnu_cxx12_Lock_policyE2EE10_M_disposeEv(ptr nocapture noundef nonnull readonly align 8 dereferenceable(24) %this) unnamed_addr #2 align 2 personality ptr @__gxx_personality_v0 {
entry:
  %_M_impl = getelementptr inbounds i8, ptr %this, i64 16
  %0 = load ptr, ptr %_M_impl, align 8
  %isnull.i = icmp eq ptr %0, null
  br i1 %isnull.i, label %_ZNKSt14default_deleteIN8facebook5velox9functions12_GLOBAL__N_114ConcatFunctionEEclEPS4_.exit, label %delete.notnull.i

delete.notnull.i:                                 ; preds = %entry
  %vtable.i = load ptr, ptr %0, align 8
  %vfn.i = getelementptr inbounds i8, ptr %vtable.i, i64 8
  %1 = load ptr, ptr %vfn.i, align 8
  tail call void %1(ptr noundef nonnull align 8 dereferenceable(80) %0) #22
  br label %_ZNKSt14default_deleteIN8facebook5velox9functions12_GLOBAL__N_114ConcatFunctionEEclEPS4_.exit

_ZNKSt14default_deleteIN8facebook5velox9functions12_GLOBAL__N_114ConcatFunctionEEclEPS4_.exit: ; preds = %entry, %delete.notnull.i
  ret void
}